target datalayout = "e-m:e-p270:32:32-p271:32:32-p272:64:64-i64:64-i128:128-f80:128-n8:16:32:64-S128"
target triple = "x86_64-pc-linux-gnu"

%"struct.faiss::IndexRefine" = type { %"struct.faiss::Index.base", ptr, ptr, i8, i8, float }
%"struct.faiss::Index.base" = type <{ ptr, i32, [4 x i8], i64, i8, i8, [2 x i8], i32, float }>
%"struct.faiss::Index" = type <{ ptr, i32, [4 x i8], i64, i8, i8, [2 x i8], i32, float, [4 x i8] }>
%"class.std::__cxx11::basic_string" = type { %"struct.std::__cxx11::basic_string<char>::_Alloc_hider", i64, %union.anon }
%"struct.std::__cxx11::basic_string<char>::_Alloc_hider" = type { ptr }
%union.anon = type { i64, [8 x i8] }

@.str.2 = private unnamed_addr constant [111 x i8] c"generated/home/dtcxzyw/WorkSpace/Projects/compilers/llvm-opt-benchmark/bench/faiss/faiss/faiss/IndexRefine.cpp\00", align 1
@_ZTIN5faiss14FaissExceptionE = external constant ptr
@.str.14 = private unnamed_addr constant [64 x i8] c"Error: '%s' failed: base_index should be empty in the beginning\00", align 1
@.str.15 = private unnamed_addr constant [24 x i8] c"base_index->ntotal == 0\00", align 1
@__PRETTY_FUNCTION__._ZN5faiss15IndexRefineFlatC2EPNS_5IndexE = private unnamed_addr constant [49 x i8] c"faiss::IndexRefineFlat::IndexRefineFlat(Index *)\00", align 1

; Function Attrs: mustprogress uwtable
define void @_ZN5faiss15IndexRefineFlatC2EPNS_5IndexE(ptr noundef nonnull align 8 dereferenceable(64) %0, ptr noundef %1) unnamed_addr #1 align 2 personality ptr @__gxx_personality_v0 {
  %3 = alloca ptr, align 8
  %4 = alloca ptr, align 8
  %5 = alloca ptr, align 8
  %6 = alloca i32, align 4
  %7 = alloca %"class.std::__cxx11::basic_string", align 8
  %8 = alloca i32, align 4
  store ptr %0, ptr %3, align 8
  store ptr %1, ptr %4, align 8
  %9 = load ptr, ptr %3, align 8
  %10 = load ptr, ptr %4, align 8
  %11 = call noalias noundef nonnull ptr @_Znwm(i64 noundef 72) #17
  %12 = load ptr, ptr %4, align 8
  %13 = getelementptr inbounds %"struct.faiss::Index", ptr %12, i32 0, i32 1
  %14 = load i32, ptr %13, align 8
  %15 = sext i32 %14 to i64
  %16 = load ptr, ptr %4, align 8
  %17 = getelementptr inbounds %"struct.faiss::Index", ptr %16, i32 0, i32 7
  %18 = load i32, ptr %17, align 4
  invoke void @_ZN5faiss9IndexFlatC1ElNS_10MetricTypeE(ptr noundef nonnull align 8 dereferenceable(72) %11, i64 noundef %15, i32 noundef %18)
          to label %19 unwind label %45

19:                                               ; preds = %2
  call void @_ZN5faiss11IndexRefineC2EPNS_5IndexES2_(ptr noundef nonnull align 8 dereferenceable(64) %9, ptr noundef %10, ptr noundef %11)
  store ptr getelementptr inbounds ({ [24 x ptr] }, ptr @_ZTVN5faiss15IndexRefineFlatE, i32 0, i32 0, i32 2), ptr %9, align 8
  %20 = load ptr, ptr %4, align 8
  %21 = getelementptr inbounds %"struct.faiss::Index", ptr %20, i32 0, i32 5
  %22 = load i8, ptr %21, align 1
  %23 = trunc i8 %22 to i1
  %24 = getelementptr inbounds %"struct.faiss::Index", ptr %9, i32 0, i32 5
  %25 = zext i1 %23 to i8
  store i8 %25, ptr %24, align 1
  %26 = getelementptr inbounds %"struct.faiss::IndexRefine", ptr %9, i32 0, i32 4
  store i8 1, ptr %26, align 1
  br label %27

27:                                               ; preds = %19
  %28 = load ptr, ptr %4, align 8
  %29 = getelementptr inbounds %"struct.faiss::Index", ptr %28, i32 0, i32 3
  %30 = load i64, ptr %29, align 8
  %31 = icmp eq i64 %30, 0
  br i1 %31, label %60, label %32

32:                                               ; preds = %27
  br label %33

33:                                               ; preds = %32
  call void @_ZNSt7__cxx1112basic_stringIcSt11char_traitsIcESaIcEEC1Ev(ptr noundef nonnull align 8 dereferenceable(32) %7) #9
  %34 = call i32 (ptr, i64, ptr, ...) @snprintf(ptr noundef null, i64 noundef 0, ptr noundef @.str.14, ptr noundef @.str.15) #9
  store i32 %34, ptr %8, align 4
  %35 = load i32, ptr %8, align 4
  %36 = add nsw i32 %35, 1
  %37 = sext i32 %36 to i64
  invoke void @_ZNSt7__cxx1112basic_stringIcSt11char_traitsIcESaIcEE6resizeEm(ptr noundef nonnull align 8 dereferenceable(32) %7, i64 noundef %37)
          to label %38 unwind label %49

38:                                               ; preds = %33
  %39 = invoke noundef nonnull align 1 dereferenceable(1) ptr @_ZNSt7__cxx1112basic_stringIcSt11char_traitsIcESaIcEEixEm(ptr noundef nonnull align 8 dereferenceable(32) %7, i64 noundef 0)
          to label %40 unwind label %49

40:                                               ; preds = %38
  %41 = call noundef i64 @_ZNKSt7__cxx1112basic_stringIcSt11char_traitsIcESaIcEE4sizeEv(ptr noundef nonnull align 8 dereferenceable(32) %7) #9
  %42 = call i32 (ptr, i64, ptr, ...) @snprintf(ptr noundef %39, i64 noundef %41, ptr noundef @.str.14, ptr noundef @.str.15) #9
  %43 = call ptr @__cxa_allocate_exception(i64 40) #9
  invoke void @_ZN5faiss14FaissExceptionC1ERKNSt7__cxx1112basic_stringIcSt11char_traitsIcESaIcEEEPKcSA_i(ptr noundef nonnull align 8 dereferenceable(40) %43, ptr noundef nonnull align 8 dereferenceable(32) %7, ptr noundef @__PRETTY_FUNCTION__._ZN5faiss15IndexRefineFlatC2EPNS_5IndexE, ptr noundef @.str.2, i32 noundef 222)
          to label %44 unwind label %53

44:                                               ; preds = %40
  invoke void @__cxa_throw(ptr %43, ptr @_ZTIN5faiss14FaissExceptionE, ptr @_ZN5faiss14FaissExceptionD2Ev) #16
          to label %68 unwind label %49

45:                                               ; preds = %2
  %46 = landingpad { ptr, i32 }
          cleanup
  %47 = extractvalue { ptr, i32 } %46, 0
  store ptr %47, ptr %5, align 8
  %48 = extractvalue { ptr, i32 } %46, 1
  store i32 %48, ptr %6, align 4
  call void @_ZdlPv(ptr noundef %11) #15
  br label %63

49:                                               ; preds = %44, %38, %33
  %50 = landingpad { ptr, i32 }
          cleanup
  %51 = extractvalue { ptr, i32 } %50, 0
  store ptr %51, ptr %5, align 8
  %52 = extractvalue { ptr, i32 } %50, 1
  store i32 %52, ptr %6, align 4
  br label %57

53:                                               ; preds = %40
  %54 = landingpad { ptr, i32 }
          cleanup
  %55 = extractvalue { ptr, i32 } %54, 0
  store ptr %55, ptr %5, align 8
  %56 = extractvalue { ptr, i32 } %54, 1
  store i32 %56, ptr %6, align 4
  call void @__cxa_free_exception(ptr %43) #9
  br label %57

57:                                               ; preds = %53, %49
  call void @_ZNSt7__cxx1112basic_stringIcSt11char_traitsIcESaIcEED1Ev(ptr noundef nonnull align 8 dereferenceable(32) %7) #9
  call void @_ZN5faiss11IndexRefineD2Ev(ptr noundef nonnull align 8 dereferenceable(64) %9) #9
  br label %63

58:                                               ; No predecessors!
  br label %59

59:                                               ; preds = %58
  br label %60

60:                                               ; preds = %59, %27
  br label %61

61:                                               ; preds = %60
  br label %62

62:                                               ; preds = %61
  ret void

63:                                               ; preds = %57, %45
  %64 = load ptr, ptr %5, align 8
  %65 = load i32, ptr %6, align 4
  %66 = insertvalue { ptr, i32 } poison, ptr %64, 0
  %67 = insertvalue { ptr, i32 } %66, i32 %65, 1
  resume { ptr, i32 } %67

68:                                               ; preds = %44
  unreachable
}