; Function Attrs: mustprogress uwtable
define void @_ZN5faiss15IndexRefineFlatC2EPNS_5IndexE(ptr noundef nonnull align 8 dereferenceable(64) %0, ptr noundef %1) unnamed_addr #1 align 2 personality ptr @__gxx_personality_v0 {
  %3 = alloca %"class.std::__cxx11::basic_string", align 8
  %4 = tail call noalias noundef nonnull dereferenceable(72) ptr @_Znwm(i64 noundef 72) #21
  %5 = getelementptr inbounds i8, ptr %1, i64 8
  %6 = load i32, ptr %5, align 8
  %7 = sext i32 %6 to i64
  %8 = getelementptr inbounds i8, ptr %1, i64 28
  %9 = load i32, ptr %8, align 4
  invoke void @_ZN5faiss9IndexFlatC1ElNS_10MetricTypeE(ptr noundef nonnull align 8 dereferenceable(72) %4, i64 noundef %7, i32 noundef %9)
          to label %10 unwind label %30

10:                                               ; preds = %2
  tail call void @_ZN5faiss11IndexRefineC2EPNS_5IndexES2_(ptr noundef nonnull align 8 dereferenceable(64) %0, ptr noundef nonnull %1, ptr noundef nonnull %4)
  store ptr getelementptr inbounds ({ [24 x ptr] }, ptr @_ZTVN5faiss15IndexRefineFlatE, i64 0, i32 0, i64 2), ptr %0, align 8
  %11 = getelementptr inbounds i8, ptr %1, i64 25
  %12 = load i8, ptr %11, align 1
  %13 = and i8 %12, 1
  %14 = getelementptr inbounds i8, ptr %0, i64 25
  store i8 %13, ptr %14, align 1
  %15 = getelementptr inbounds i8, ptr %0, i64 57
  store i8 1, ptr %15, align 1
  %16 = getelementptr inbounds i8, ptr %1, i64 16
  %17 = load i64, ptr %16, align 8
  %18 = icmp eq i64 %17, 0
  br i1 %18, label %37, label %19

19:                                               ; preds = %10
  call void @_ZNSt7__cxx1112basic_stringIcSt11char_traitsIcESaIcEEC1Ev(ptr noundef nonnull align 8 dereferenceable(32) %3) #10
  %20 = call i32 (ptr, i64, ptr, ...) @snprintf(ptr noundef null, i64 noundef 0, ptr noundef nonnull @.str.14, ptr noundef nonnull @.str.15) #10
  %21 = add nsw i32 %20, 1
  %22 = sext i32 %21 to i64
  invoke void @_ZNSt7__cxx1112basic_stringIcSt11char_traitsIcESaIcEE6resizeEm(ptr noundef nonnull align 8 dereferenceable(32) %3, i64 noundef %22)
          to label %23 unwind label %32

23:                                               ; preds = %19
  %24 = invoke noundef nonnull align 1 dereferenceable(1) ptr @_ZNSt7__cxx1112basic_stringIcSt11char_traitsIcESaIcEEixEm(ptr noundef nonnull align 8 dereferenceable(32) %3, i64 noundef 0)
          to label %25 unwind label %32

25:                                               ; preds = %23
  %26 = call noundef i64 @_ZNKSt7__cxx1112basic_stringIcSt11char_traitsIcESaIcEE4sizeEv(ptr noundef nonnull align 8 dereferenceable(32) %3) #10
  %27 = call i32 (ptr, i64, ptr, ...) @snprintf(ptr noundef nonnull %24, i64 noundef %26, ptr noundef nonnull @.str.14, ptr noundef nonnull @.str.15) #10
  %28 = call ptr @__cxa_allocate_exception(i64 40) #10
  invoke void @_ZN5faiss14FaissExceptionC1ERKNSt7__cxx1112basic_stringIcSt11char_traitsIcESaIcEEEPKcSA_i(ptr noundef nonnull align 8 dereferenceable(40) %28, ptr noundef nonnull align 8 dereferenceable(32) %3, ptr noundef nonnull @__PRETTY_FUNCTION__._ZN5faiss15IndexRefineFlatC2EPNS_5IndexE, ptr noundef nonnull @.str.2, i32 noundef 222)
          to label %29 unwind label %34

29:                                               ; preds = %25
  invoke void @__cxa_throw(ptr nonnull %28, ptr nonnull @_ZTIN5faiss14FaissExceptionE, ptr nonnull @_ZN5faiss14FaissExceptionD2Ev) #20
          to label %39 unwind label %32

30:                                               ; preds = %2
  %31 = landingpad { ptr, i32 }
          cleanup
  tail call void @_ZdlPv(ptr noundef nonnull %4) #19
  br label %38

32:                                               ; preds = %29, %23, %19
  %33 = landingpad { ptr, i32 }
          cleanup
  br label %36

34:                                               ; preds = %25
  %35 = landingpad { ptr, i32 }
          cleanup
  call void @__cxa_free_exception(ptr %28) #10
  br label %36

36:                                               ; preds = %34, %32
  %.pn = phi { ptr, i32 } [ %33, %32 ], [ %35, %34 ]
  call void @_ZNSt7__cxx1112basic_stringIcSt11char_traitsIcESaIcEED1Ev(ptr noundef nonnull align 8 dereferenceable(32) %3) #10
  call void @_ZN5faiss11IndexRefineD2Ev(ptr noundef nonnull align 8 dereferenceable(64) %0) #10
  br label %38

37:                                               ; preds = %10
  ret void

38:                                               ; preds = %36, %30
  %.pn.pn = phi { ptr, i32 } [ %.pn, %36 ], [ %31, %30 ]
  resume { ptr, i32 } %.pn.pn

39:                                               ; preds = %29
  unreachable
}